; Function Attrs: inlinehint nofree norecurse nosync nounwind memory(read, argmem: readwrite, inaccessiblemem: none) uwtable
define internal fastcc range(i32 -1094995529, 1) i32 @skip_1stop_8data_bits(ptr noundef captures(none) %0) unnamed_addr #9 {
  %2 = getelementptr i8, ptr %0, i64 16
  %.val5 = load i32, ptr %2, align 8, !tbaa !73
  %3 = getelementptr i8, ptr %0, i64 20
  %.val6 = load i32, ptr %3, align 4, !tbaa !80
  %.not7 = icmp sgt i32 %.val6, %.val5
  br i1 %.not7, label %.preheader, label %.loopexit

.preheader:                                       ; preds = %1
  %4 = load ptr, ptr %0, align 8, !tbaa !74
  br label %5

5:                                                ; preds = %.preheader, %16
  %6 = phi i32 [ %.val5, %.preheader ], [ %17, %16 ]
  %7 = lshr i32 %6, 3
  %8 = zext nneg i32 %7 to i64
  %9 = getelementptr inbounds nuw i8, ptr %4, i64 %8
  %10 = load i8, ptr %9, align 1, !tbaa !72
  %11 = and i32 %6, 7
  %12 = zext i8 %10 to i32
  %13 = add nsw i32 %6, 1
  store i32 %13, ptr %2, align 8, !tbaa !73
  %14 = lshr exact i32 128, %11
  %15 = and i32 %14, %12
  %.not = icmp eq i32 %15, 0
  br i1 %.not, label %.loopexit, label %16

16:                                               ; preds = %5
  %17 = add i32 %6, 9
  store i32 %17, ptr %2, align 8, !tbaa !73
  %.not8 = icmp sgt i32 %.val6, %17
  br i1 %.not8, label %5, label %.loopexit, !llvm.loop !168

.loopexit:                                        ; preds = %5, %16, %1
  %.0 = phi i32 [ -1094995529, %1 ], [ 0, %5 ], [ -1094995529, %16 ]
  ret i32 %.0
}